; Function Attrs: nounwind uwtable
define internal void @pic_polygon(ptr noundef %0, ptr noundef readonly captures(none) %1, i64 noundef %2, i32 %3) #0 {
  %.not19.i = icmp eq i64 %2, 0
  br i1 %.not19.i, label %picptarray.exit, label %.lr.ph.i

.lr.ph.i:                                         ; preds = %4
  %5 = getelementptr inbounds nuw i8, ptr %1, i64 8
  br label %6

6:                                                ; preds = %16, %.lr.ph.i
  %.018.i = phi i64 [ 0, %.lr.ph.i ], [ %17, %16 ]
  %7 = icmp eq i64 %.018.i, 0
  br i1 %7, label %8, label %11

8:                                                ; preds = %6
  %9 = load double, ptr %1, align 8, !tbaa !52
  %10 = load double, ptr %5, align 8, !tbaa !53
  tail call void (ptr, ptr, ...) @gvprintf(ptr noundef %0, ptr noundef nonnull @.str.86, double noundef %9, double noundef %10) #8
  br label %16

11:                                               ; preds = %6
  %12 = getelementptr inbounds nuw %struct.pointf_s, ptr %1, i64 %.018.i
  %13 = load double, ptr %12, align 8, !tbaa !52
  %14 = getelementptr inbounds nuw i8, ptr %12, i64 8
  %15 = load double, ptr %14, align 8, !tbaa !53
  tail call void (ptr, ptr, ...) @gvprintf(ptr noundef %0, ptr noundef nonnull @.str.87, double noundef %13, double noundef %15) #8
  br label %16

16:                                               ; preds = %11, %8
  %17 = add nuw i64 %.018.i, 1
  %exitcond.not.i = icmp eq i64 %17, %2
  br i1 %exitcond.not.i, label %picptarray.exit, label %6, !llvm.loop !54

picptarray.exit:                                  ; preds = %16, %4
  %18 = load double, ptr %1, align 8, !tbaa !52
  %19 = getelementptr inbounds nuw i8, ptr %1, i64 8
  %20 = load double, ptr %19, align 8, !tbaa !53
  tail call void (ptr, ptr, ...) @gvprintf(ptr noundef %0, ptr noundef nonnull @.str.87, double noundef %18, double noundef %20) #8
  %21 = tail call i32 @gvputs(ptr noundef %0, ptr noundef nonnull @.str.88) #8
  ret void
}